target datalayout = "e-m:e-p270:32:32-p271:32:32-p272:64:64-i64:64-i128:128-f80:128-n8:16:32:64-S128"
target triple = "x86_64-pc-linux-gnu"

%"class.lean::object_ref" = type { ptr }
%struct.lean_object = type { i32, i32 }
%struct.lean_ctor_object = type { %struct.lean_object, [0 x ptr] }

; Function Attrs: inlinehint mustprogress nounwind uwtable
define internal noundef ptr @_ZL12lean_to_ctorP11lean_object(ptr noundef %0) #6 {
  %2 = alloca ptr, align 8
  store ptr %0, ptr %2, align 8, !tbaa !20
  %3 = load ptr, ptr %2, align 8, !tbaa !20
  ret ptr %3
}

; Function Attrs: inlinehint mustprogress nounwind uwtable
define linkonce_odr hidden noundef nonnull align 8 dereferenceable(8) ptr @_ZN4lean13cnstr_get_refEP11lean_objectj(ptr noundef %0, i32 noundef %1) #6 comdat {
  %3 = alloca ptr, align 8
  %4 = alloca i32, align 4
  store ptr %0, ptr %3, align 8, !tbaa !20
  store i32 %1, ptr %4, align 4, !tbaa !14
  %5 = load ptr, ptr %3, align 8, !tbaa !20
  %6 = call noundef ptr @_ZL12lean_to_ctorP11lean_object(ptr noundef %5)
  %7 = getelementptr inbounds nuw %struct.lean_ctor_object, ptr %6, i32 0, i32 1
  %8 = getelementptr inbounds [0 x ptr], ptr %7, i64 0, i64 0
  %9 = load i32, ptr %4, align 4, !tbaa !14
  %10 = zext i32 %9 to i64
  %11 = getelementptr inbounds nuw %"class.lean::object_ref", ptr %8, i64 %10
  ret ptr %11
}

; Function Attrs: inlinehint mustprogress uwtable
define linkonce_odr hidden noundef nonnull align 8 dereferenceable(8) ptr @_ZN4lean13cnstr_get_refERKNS_10object_refEj(ptr noundef nonnull align 8 dereferenceable(8) %0, i32 noundef %1) #1 comdat {
  %3 = alloca ptr, align 8
  %4 = alloca i32, align 4
  store ptr %0, ptr %3, align 8, !tbaa !43
  store i32 %1, ptr %4, align 4, !tbaa !14
  %5 = load ptr, ptr %3, align 8, !tbaa !43
  %6 = call noundef ptr @_ZNK4lean10object_ref3rawEv(ptr noundef nonnull align 8 dereferenceable(8) %5)
  %7 = load i32, ptr %4, align 4, !tbaa !14
  %8 = call noundef nonnull align 8 dereferenceable(8) ptr @_ZN4lean13cnstr_get_refEP11lean_objectj(ptr noundef %6, i32 noundef %7)
  ret ptr %8
}

; Function Attrs: alwaysinline mustprogress nounwind uwtable
define internal noundef zeroext i1 @_ZL14lean_is_scalarP11lean_object(ptr noundef %0) #8 {
  %2 = alloca ptr, align 8
  store ptr %0, ptr %2, align 8, !tbaa !20
  %3 = load ptr, ptr %2, align 8, !tbaa !20
  %4 = ptrtoint ptr %3 to i64
  %5 = and i64 %4, 1
  %6 = icmp eq i64 %5, 1
  ret i1 %6
}

; Function Attrs: mustprogress uwtable
define linkonce_odr hidden noundef nonnull align 8 dereferenceable(8) ptr @_ZN4lean4tailERKNS_8list_refINS_5levelEEE(ptr noundef nonnull align 8 dereferenceable(8) %0) #0 comdat {
  %2 = alloca ptr, align 8
  store ptr %0, ptr %2, align 8, !tbaa !39
  %3 = load ptr, ptr %2, align 8, !tbaa !39
  %4 = call noundef nonnull align 8 dereferenceable(8) ptr @_ZN4lean13cnstr_get_refERKNS_10object_refEj(ptr noundef nonnull align 8 dereferenceable(8) %3, i32 noundef 1)
  ret ptr %4
}

; Function Attrs: mustprogress uwtable
define linkonce_odr hidden noundef nonnull align 8 dereferenceable(8) ptr @_ZN4lean4headERKNS_8list_refINS_5levelEEE(ptr noundef nonnull align 8 dereferenceable(8) %0) #0 comdat {
  %2 = alloca ptr, align 8
  store ptr %0, ptr %2, align 8, !tbaa !39
  %3 = load ptr, ptr %2, align 8, !tbaa !39
  %4 = call noundef nonnull align 8 dereferenceable(8) ptr @_ZN4lean13cnstr_get_refERKNS_10object_refEj(ptr noundef nonnull align 8 dereferenceable(8) %3, i32 noundef 0)
  ret ptr %4
}

; Function Attrs: inlinehint mustprogress nounwind uwtable
define linkonce_odr hidden noundef zeroext i1 @_ZN4lean9is_scalarEP11lean_object(ptr noundef %0) #6 comdat {
  %2 = alloca ptr, align 8
  store ptr %0, ptr %2, align 8, !tbaa !20
  %3 = load ptr, ptr %2, align 8, !tbaa !20
  %4 = call noundef zeroext i1 @_ZL14lean_is_scalarP11lean_object(ptr noundef %3)
  ret i1 %4
}

; Function Attrs: mustprogress nounwind uwtable
define linkonce_odr hidden noundef ptr @_ZNK4lean10object_ref3rawEv(ptr noundef nonnull align 8 dereferenceable(8) %0) #4 comdat align 2 {
  %2 = alloca ptr, align 8
  store ptr %0, ptr %2, align 8, !tbaa !43
  %3 = load ptr, ptr %2, align 8
  %4 = getelementptr inbounds nuw %"class.lean::object_ref", ptr %3, i32 0, i32 0
  %5 = load ptr, ptr %4, align 8, !tbaa !45
  ret ptr %5
}

; Function Attrs: mustprogress uwtable
define linkonce_odr hidden noundef nonnull align 8 dereferenceable(8) ptr @_ZN4lean3cdrERKNS_8list_refINS_5levelEEE(ptr noundef nonnull align 8 dereferenceable(8) %0) #0 comdat {
  %2 = alloca ptr, align 8
  store ptr %0, ptr %2, align 8, !tbaa !39
  %3 = load ptr, ptr %2, align 8, !tbaa !39
  %4 = call noundef nonnull align 8 dereferenceable(8) ptr @_ZN4lean4tailERKNS_8list_refINS_5levelEEE(ptr noundef nonnull align 8 dereferenceable(8) %3)
  ret ptr %4
}

; Function Attrs: mustprogress uwtable
define linkonce_odr hidden noundef nonnull align 8 dereferenceable(8) ptr @_ZN4lean3carERKNS_8list_refINS_5levelEEE(ptr noundef nonnull align 8 dereferenceable(8) %0) #0 comdat {
  %2 = alloca ptr, align 8
  store ptr %0, ptr %2, align 8, !tbaa !39
  %3 = load ptr, ptr %2, align 8, !tbaa !39
  %4 = call noundef nonnull align 8 dereferenceable(8) ptr @_ZN4lean4headERKNS_8list_refINS_5levelEEE(ptr noundef nonnull align 8 dereferenceable(8) %3)
  ret ptr %4
}

; Function Attrs: mustprogress nounwind uwtable
define linkonce_odr hidden noundef zeroext i1 @_ZN4lean6is_nilERKNS_8list_refINS_5levelEEE(ptr noundef nonnull align 8 dereferenceable(8) %0) #4 comdat {
  %2 = alloca ptr, align 8
  store ptr %0, ptr %2, align 8, !tbaa !39
  %3 = load ptr, ptr %2, align 8, !tbaa !39
  %4 = call noundef ptr @_ZNK4lean10object_ref3rawEv(ptr noundef nonnull align 8 dereferenceable(8) %3)
  %5 = call noundef zeroext i1 @_ZN4lean9is_scalarEP11lean_object(ptr noundef %4)
  ret i1 %5
}

; Function Attrs: mustprogress uwtable
define hidden noundef zeroext i1 @_ZN4lean21is_lt_no_level_paramsERKNS_8list_refINS_5levelEEES4_(ptr noundef nonnull align 8 dereferenceable(8) %0, ptr noundef nonnull align 8 dereferenceable(8) %1) #0 {
  %3 = alloca i1, align 1
  %4 = alloca ptr, align 8
  %5 = alloca ptr, align 8
  store ptr %0, ptr %4, align 8, !tbaa !39
  store ptr %1, ptr %5, align 8, !tbaa !39
  %6 = load ptr, ptr %4, align 8, !tbaa !39
  %7 = call noundef zeroext i1 @_ZN4lean6is_nilERKNS_8list_refINS_5levelEEE(ptr noundef nonnull align 8 dereferenceable(8) %6)
  br i1 %7, label %8, label %12

8:                                                ; preds = %2
  %9 = load ptr, ptr %5, align 8, !tbaa !39
  %10 = call noundef zeroext i1 @_ZN4lean6is_nilERKNS_8list_refINS_5levelEEE(ptr noundef nonnull align 8 dereferenceable(8) %9)
  %11 = xor i1 %10, true
  store i1 %11, ptr %3, align 1
  br label %36

12:                                               ; preds = %2
  %13 = load ptr, ptr %5, align 8, !tbaa !39
  %14 = call noundef zeroext i1 @_ZN4lean6is_nilERKNS_8list_refINS_5levelEEE(ptr noundef nonnull align 8 dereferenceable(8) %13)
  br i1 %14, label %15, label %16

15:                                               ; preds = %12
  store i1 false, ptr %3, align 1
  br label %36

16:                                               ; preds = %12
  %17 = load ptr, ptr %4, align 8, !tbaa !39
  %18 = call noundef nonnull align 8 dereferenceable(8) ptr @_ZN4lean3carERKNS_8list_refINS_5levelEEE(ptr noundef nonnull align 8 dereferenceable(8) %17)
  %19 = load ptr, ptr %5, align 8, !tbaa !39
  %20 = call noundef nonnull align 8 dereferenceable(8) ptr @_ZN4lean3carERKNS_8list_refINS_5levelEEE(ptr noundef nonnull align 8 dereferenceable(8) %19)
  %21 = call noundef zeroext i1 @_ZN4lean21is_lt_no_level_paramsERKNS_5levelES2_(ptr noundef nonnull align 8 dereferenceable(8) %18, ptr noundef nonnull align 8 dereferenceable(8) %20)
  br i1 %21, label %22, label %23

22:                                               ; preds = %16
  store i1 true, ptr %3, align 1
  br label %36

23:                                               ; preds = %16
  %24 = load ptr, ptr %5, align 8, !tbaa !39
  %25 = call noundef nonnull align 8 dereferenceable(8) ptr @_ZN4lean3carERKNS_8list_refINS_5levelEEE(ptr noundef nonnull align 8 dereferenceable(8) %24)
  %26 = load ptr, ptr %4, align 8, !tbaa !39
  %27 = call noundef nonnull align 8 dereferenceable(8) ptr @_ZN4lean3carERKNS_8list_refINS_5levelEEE(ptr noundef nonnull align 8 dereferenceable(8) %26)
  %28 = call noundef zeroext i1 @_ZN4lean21is_lt_no_level_paramsERKNS_5levelES2_(ptr noundef nonnull align 8 dereferenceable(8) %25, ptr noundef nonnull align 8 dereferenceable(8) %27)
  br i1 %28, label %29, label %30

29:                                               ; preds = %23
  store i1 false, ptr %3, align 1
  br label %36

30:                                               ; preds = %23
  %31 = load ptr, ptr %4, align 8, !tbaa !39
  %32 = call noundef nonnull align 8 dereferenceable(8) ptr @_ZN4lean3cdrERKNS_8list_refINS_5levelEEE(ptr noundef nonnull align 8 dereferenceable(8) %31)
  %33 = load ptr, ptr %5, align 8, !tbaa !39
  %34 = call noundef nonnull align 8 dereferenceable(8) ptr @_ZN4lean3cdrERKNS_8list_refINS_5levelEEE(ptr noundef nonnull align 8 dereferenceable(8) %33)
  %35 = call noundef zeroext i1 @_ZN4lean21is_lt_no_level_paramsERKNS_8list_refINS_5levelEEES4_(ptr noundef nonnull align 8 dereferenceable(8) %32, ptr noundef nonnull align 8 dereferenceable(8) %34)
  store i1 %35, ptr %3, align 1
  br label %36

36:                                               ; preds = %30, %29, %22, %15, %8
  %37 = load i1, ptr %3, align 1
  ret i1 %37
}