; Function Attrs: mustprogress uwtable
define hidden noundef zeroext i1 @_ZN4lean21is_lt_no_level_paramsERKNS_8list_refINS_5levelEEES4_(ptr noundef nonnull readonly align 8 captures(none) dereferenceable(8) %0, ptr noundef nonnull readonly align 8 captures(none) dereferenceable(8) %1) local_unnamed_addr #0 {
  %3 = load ptr, ptr %0, align 8, !tbaa !3
  %4 = ptrtoint ptr %3 to i64
  %5 = and i64 %4, 1
  %.not14 = icmp eq i64 %5, 0
  br i1 %.not14, label %.lr.ph, label %tailrecurse._crit_edge

tailrecurse._crit_edge:                           ; preds = %tailrecurse, %2
  %.tr12.lcssa = phi ptr [ %1, %2 ], [ %26, %tailrecurse ]
  %6 = load ptr, ptr %.tr12.lcssa, align 8, !tbaa !3
  %7 = ptrtoint ptr %6 to i64
  %8 = and i64 %7, 1
  %.not11 = icmp eq i64 %8, 0
  br label %.loopexit

.lr.ph:                                           ; preds = %2, %tailrecurse
  %9 = phi ptr [ %27, %tailrecurse ], [ %3, %2 ]
  %.tr1216 = phi ptr [ %26, %tailrecurse ], [ %1, %2 ]
  %.tr15 = phi ptr [ %24, %tailrecurse ], [ %0, %2 ]
  %10 = load ptr, ptr %.tr1216, align 8, !tbaa !3
  %11 = ptrtoint ptr %10 to i64
  %12 = and i64 %11, 1
  %.not10 = icmp eq i64 %12, 0
  br i1 %.not10, label %13, label %.loopexit

13:                                               ; preds = %.lr.ph
  %14 = getelementptr inbounds nuw i8, ptr %9, i64 8
  %15 = getelementptr inbounds nuw i8, ptr %10, i64 8
  %16 = tail call noundef zeroext i1 @_ZN4lean21is_lt_no_level_paramsERKNS_5levelES2_(ptr noundef nonnull align 8 dereferenceable(8) %14, ptr noundef nonnull align 8 dereferenceable(8) %15)
  br i1 %16, label %.loopexit, label %17

17:                                               ; preds = %13
  %18 = load ptr, ptr %.tr1216, align 8, !tbaa !3
  %19 = getelementptr inbounds nuw i8, ptr %18, i64 8
  %20 = load ptr, ptr %.tr15, align 8, !tbaa !3
  %21 = getelementptr inbounds nuw i8, ptr %20, i64 8
  %22 = tail call noundef zeroext i1 @_ZN4lean21is_lt_no_level_paramsERKNS_5levelES2_(ptr noundef nonnull align 8 dereferenceable(8) %19, ptr noundef nonnull align 8 dereferenceable(8) %21)
  br i1 %22, label %.loopexit, label %tailrecurse

tailrecurse:                                      ; preds = %17
  %23 = load ptr, ptr %.tr15, align 8, !tbaa !3
  %24 = getelementptr inbounds nuw i8, ptr %23, i64 16
  %25 = load ptr, ptr %.tr1216, align 8, !tbaa !3
  %26 = getelementptr inbounds nuw i8, ptr %25, i64 16
  %27 = load ptr, ptr %24, align 8, !tbaa !3
  %28 = ptrtoint ptr %27 to i64
  %29 = and i64 %28, 1
  %.not = icmp eq i64 %29, 0
  br i1 %.not, label %.lr.ph, label %tailrecurse._crit_edge

.loopexit:                                        ; preds = %17, %13, %.lr.ph, %tailrecurse._crit_edge
  %.0 = phi i1 [ %.not11, %tailrecurse._crit_edge ], [ false, %17 ], [ true, %13 ], [ false, %.lr.ph ]
  ret i1 %.0
}